ccopy_reg
_reconstructor
p0
(cgoogle.oauth2.credentials
Credentials
p1
c__builtin__
object
p2
Ntp3
Rp4
(dp5
S'_quota_project_id'
p6
NsS'_token_uri'
p7
Vhttps://oauth2.googleapis.com/token
p8
sS'_client_secret'
p9
VaMbpjYD76EBHFpGUOhlJfyUG
p10
sS'_id_token'
p11
NsS'token'
p12
Vya29.ImDBB7AysYXishBQBynQSDlgaSbFC6KzEmfgOQo8dxQ2058Sp4abdl9CJB-qhxG07A_K_dDzzGlgIJUGT6FmHV119rNa8h72UPKrSFDVvwjh6GPOVHfk6rRHiCGxNG5ZkrY
p13
sS'_refresh_token'
p14
V1//061Bu0_CKSuh4CgYIARAAGAYSNwF-L9Irby7olTRDOFn79pVNsPcXc_UkD9JZw_gP_wdN4rGCW-w6-dKIrroxk6kKz0nQwx-PpNQ
p15
sS'_scopes'
p16
(lp17
S'https://www.googleapis.com/auth/calendar.readonly'
p18
asS'_client_id'
p19
V257500269166-e9fefgntbj43d7rtkagku7mkm4jh4j0j.apps.googleusercontent.com
p20
sS'expiry'
p21
cdatetime
datetime
p22
(S'\x07\xe4\x03\x06\x01:\x14\x07\x9cS'
p23
tp24
Rp25
sb.